; Function Attrs: nounwind uwtable
define dso_local void @pq_getmsgend(ptr noundef readonly captures(none) %0) local_unnamed_addr #0 {
  %2 = getelementptr inbounds nuw i8, ptr %0, i64 16
  %3 = load i32, ptr %2, align 8
  %4 = getelementptr inbounds nuw i8, ptr %0, i64 8
  %5 = load i32, ptr %4, align 8
  %.not = icmp eq i32 %3, %5
  br i1 %.not, label %10, label %6

6:                                                ; preds = %1
  %7 = tail call zeroext i1 @errstart_cold(i32 noundef 21, ptr noundef null) #11
  tail call void @llvm.assume(i1 %7)
  %8 = tail call i32 @errcode(i32 noundef 16908800) #9
  %9 = tail call i32 (ptr, ...) @errmsg(ptr noundef nonnull @.str.5) #9
  tail call void @errfinish(ptr noundef nonnull @.str.1, i32 noundef 640, ptr noundef nonnull @__func__.pq_getmsgend) #9
  unreachable

10:                                               ; preds = %1
  ret void
}